target datalayout = "e-m:e-p270:32:32-p271:32:32-p272:64:64-i64:64-i128:128-f80:128-n8:16:32:64-S128"
target triple = "x86_64-pc-linux-gnu"

%struct.Node = type { i32 }
%struct.Plan = type { i32, i32, double, double, double, i32, i8, i8, i8, i32, ptr, ptr, ptr, ptr, ptr, ptr, ptr }
%struct.Path = type { i32, i32, ptr, ptr, ptr, i8, i8, i32, double, i32, double, double, ptr }
%struct.List = type { i32, i32, i32, ptr, [0 x %union.ListCell] }
%union.ListCell = type { ptr }
%struct.Agg = type { %struct.Plan, i32, i32, i32, ptr, ptr, ptr, i64, i64, ptr, ptr, ptr }
%struct.QualCost = type { double, double }
%struct.PathTarget = type { i32, ptr, ptr, %struct.QualCost, i32, i32 }
%struct.AggPath = type { %struct.Path, ptr, i32, i32, double, i64, ptr, ptr }

; Function Attrs: inlinehint nounwind uwtable
define internal ptr @newNode(i64 noundef %0, i32 noundef %1) #4 {
  %3 = alloca i64, align 8
  %4 = alloca i32, align 4
  %5 = alloca ptr, align 8
  store i64 %0, ptr %3, align 8
  store i32 %1, ptr %4, align 4
  call void @llvm.lifetime.start.p0(i64 8, ptr %5) #10
  %6 = load i64, ptr %3, align 8
  %7 = call ptr @palloc0(i64 noundef %6)
  store ptr %7, ptr %5, align 8
  %8 = load i32, ptr %4, align 4
  %9 = load ptr, ptr %5, align 8
  %10 = getelementptr inbounds nuw %struct.Node, ptr %9, i32 0, i32 0
  store i32 %8, ptr %10, align 4
  %11 = load ptr, ptr %5, align 8
  call void @llvm.lifetime.end.p0(i64 8, ptr %5) #10
  ret ptr %11
}

; Function Attrs: nounwind uwtable
define internal void @copy_generic_path_info(ptr noundef %0, ptr noundef %1) #0 {
  %3 = alloca ptr, align 8
  %4 = alloca ptr, align 8
  store ptr %0, ptr %3, align 8
  store ptr %1, ptr %4, align 8
  %5 = load ptr, ptr %4, align 8
  %6 = getelementptr inbounds nuw %struct.Path, ptr %5, i32 0, i32 9
  %7 = load i32, ptr %6, align 8
  %8 = load ptr, ptr %3, align 8
  %9 = getelementptr inbounds nuw %struct.Plan, ptr %8, i32 0, i32 1
  store i32 %7, ptr %9, align 4
  %10 = load ptr, ptr %4, align 8
  %11 = getelementptr inbounds nuw %struct.Path, ptr %10, i32 0, i32 10
  %12 = load double, ptr %11, align 8
  %13 = load ptr, ptr %3, align 8
  %14 = getelementptr inbounds nuw %struct.Plan, ptr %13, i32 0, i32 2
  store double %12, ptr %14, align 8
  %15 = load ptr, ptr %4, align 8
  %16 = getelementptr inbounds nuw %struct.Path, ptr %15, i32 0, i32 11
  %17 = load double, ptr %16, align 8
  %18 = load ptr, ptr %3, align 8
  %19 = getelementptr inbounds nuw %struct.Plan, ptr %18, i32 0, i32 3
  store double %17, ptr %19, align 8
  %20 = load ptr, ptr %4, align 8
  %21 = getelementptr inbounds nuw %struct.Path, ptr %20, i32 0, i32 8
  %22 = load double, ptr %21, align 8
  %23 = load ptr, ptr %3, align 8
  %24 = getelementptr inbounds nuw %struct.Plan, ptr %23, i32 0, i32 4
  store double %22, ptr %24, align 8
  %25 = load ptr, ptr %4, align 8
  %26 = getelementptr inbounds nuw %struct.Path, ptr %25, i32 0, i32 3
  %27 = load ptr, ptr %26, align 8
  %28 = getelementptr inbounds nuw %struct.PathTarget, ptr %27, i32 0, i32 4
  %29 = load i32, ptr %28, align 8
  %30 = load ptr, ptr %3, align 8
  %31 = getelementptr inbounds nuw %struct.Plan, ptr %30, i32 0, i32 5
  store i32 %29, ptr %31, align 8
  %32 = load ptr, ptr %4, align 8
  %33 = getelementptr inbounds nuw %struct.Path, ptr %32, i32 0, i32 5
  %34 = load i8, ptr %33, align 8, !range !4, !noundef !5
  %35 = trunc i8 %34 to i1
  %36 = load ptr, ptr %3, align 8
  %37 = getelementptr inbounds nuw %struct.Plan, ptr %36, i32 0, i32 6
  %38 = zext i1 %35 to i8
  store i8 %38, ptr %37, align 4
  %39 = load ptr, ptr %4, align 8
  %40 = getelementptr inbounds nuw %struct.Path, ptr %39, i32 0, i32 6
  %41 = load i8, ptr %40, align 1, !range !4, !noundef !5
  %42 = trunc i8 %41 to i1
  %43 = load ptr, ptr %3, align 8
  %44 = getelementptr inbounds nuw %struct.Plan, ptr %43, i32 0, i32 7
  %45 = zext i1 %42 to i8
  store i8 %45, ptr %44, align 1
  ret void
}

; Function Attrs: nounwind uwtable
define dso_local ptr @make_agg(ptr noundef %0, ptr noundef %1, i32 noundef %2, i32 noundef %3, i32 noundef %4, ptr noundef %5, ptr noundef %6, ptr noundef %7, ptr noundef %8, ptr noundef %9, double noundef %10, i64 noundef %11, ptr noundef %12) #0 {
  %14 = alloca ptr, align 8
  %15 = alloca ptr, align 8
  %16 = alloca i32, align 4
  %17 = alloca i32, align 4
  %18 = alloca i32, align 4
  %19 = alloca ptr, align 8
  %20 = alloca ptr, align 8
  %21 = alloca ptr, align 8
  %22 = alloca ptr, align 8
  %23 = alloca ptr, align 8
  %24 = alloca double, align 8
  %25 = alloca i64, align 8
  %26 = alloca ptr, align 8
  %27 = alloca ptr, align 8
  %28 = alloca ptr, align 8
  %29 = alloca i64, align 8
  store ptr %0, ptr %14, align 8
  store ptr %1, ptr %15, align 8
  store i32 %2, ptr %16, align 4
  store i32 %3, ptr %17, align 4
  store i32 %4, ptr %18, align 4
  store ptr %5, ptr %19, align 8
  store ptr %6, ptr %20, align 8
  store ptr %7, ptr %21, align 8
  store ptr %8, ptr %22, align 8
  store ptr %9, ptr %23, align 8
  store double %10, ptr %24, align 8
  store i64 %11, ptr %25, align 8
  store ptr %12, ptr %26, align 8
  call void @llvm.lifetime.start.p0(i64 8, ptr %27) #10
  %30 = call ptr @newNode(i64 noundef 184, i32 noundef 364)
  store ptr %30, ptr %27, align 8
  call void @llvm.lifetime.start.p0(i64 8, ptr %28) #10
  %31 = load ptr, ptr %27, align 8
  %32 = getelementptr inbounds nuw %struct.Agg, ptr %31, i32 0, i32 0
  store ptr %32, ptr %28, align 8
  call void @llvm.lifetime.start.p0(i64 8, ptr %29) #10
  %33 = load double, ptr %24, align 8
  %34 = call i64 @clamp_cardinality_to_long(double noundef %33)
  store i64 %34, ptr %29, align 8
  %35 = load i32, ptr %16, align 4
  %36 = load ptr, ptr %27, align 8
  %37 = getelementptr inbounds nuw %struct.Agg, ptr %36, i32 0, i32 1
  store i32 %35, ptr %37, align 8
  %38 = load i32, ptr %17, align 4
  %39 = load ptr, ptr %27, align 8
  %40 = getelementptr inbounds nuw %struct.Agg, ptr %39, i32 0, i32 2
  store i32 %38, ptr %40, align 4
  %41 = load i32, ptr %18, align 4
  %42 = load ptr, ptr %27, align 8
  %43 = getelementptr inbounds nuw %struct.Agg, ptr %42, i32 0, i32 3
  store i32 %41, ptr %43, align 8
  %44 = load ptr, ptr %19, align 8
  %45 = load ptr, ptr %27, align 8
  %46 = getelementptr inbounds nuw %struct.Agg, ptr %45, i32 0, i32 4
  store ptr %44, ptr %46, align 8
  %47 = load ptr, ptr %20, align 8
  %48 = load ptr, ptr %27, align 8
  %49 = getelementptr inbounds nuw %struct.Agg, ptr %48, i32 0, i32 5
  store ptr %47, ptr %49, align 8
  %50 = load ptr, ptr %21, align 8
  %51 = load ptr, ptr %27, align 8
  %52 = getelementptr inbounds nuw %struct.Agg, ptr %51, i32 0, i32 6
  store ptr %50, ptr %52, align 8
  %53 = load i64, ptr %29, align 8
  %54 = load ptr, ptr %27, align 8
  %55 = getelementptr inbounds nuw %struct.Agg, ptr %54, i32 0, i32 7
  store i64 %53, ptr %55, align 8
  %56 = load i64, ptr %25, align 8
  %57 = load ptr, ptr %27, align 8
  %58 = getelementptr inbounds nuw %struct.Agg, ptr %57, i32 0, i32 8
  store i64 %56, ptr %58, align 8
  %59 = load ptr, ptr %27, align 8
  %60 = getelementptr inbounds nuw %struct.Agg, ptr %59, i32 0, i32 9
  store ptr null, ptr %60, align 8
  %61 = load ptr, ptr %22, align 8
  %62 = load ptr, ptr %27, align 8
  %63 = getelementptr inbounds nuw %struct.Agg, ptr %62, i32 0, i32 10
  store ptr %61, ptr %63, align 8
  %64 = load ptr, ptr %23, align 8
  %65 = load ptr, ptr %27, align 8
  %66 = getelementptr inbounds nuw %struct.Agg, ptr %65, i32 0, i32 11
  store ptr %64, ptr %66, align 8
  %67 = load ptr, ptr %15, align 8
  %68 = load ptr, ptr %28, align 8
  %69 = getelementptr inbounds nuw %struct.Plan, ptr %68, i32 0, i32 11
  store ptr %67, ptr %69, align 8
  %70 = load ptr, ptr %14, align 8
  %71 = load ptr, ptr %28, align 8
  %72 = getelementptr inbounds nuw %struct.Plan, ptr %71, i32 0, i32 10
  store ptr %70, ptr %72, align 8
  %73 = load ptr, ptr %26, align 8
  %74 = load ptr, ptr %28, align 8
  %75 = getelementptr inbounds nuw %struct.Plan, ptr %74, i32 0, i32 12
  store ptr %73, ptr %75, align 8
  %76 = load ptr, ptr %28, align 8
  %77 = getelementptr inbounds nuw %struct.Plan, ptr %76, i32 0, i32 13
  store ptr null, ptr %77, align 8
  %78 = load ptr, ptr %27, align 8
  call void @llvm.lifetime.end.p0(i64 8, ptr %29) #10
  call void @llvm.lifetime.end.p0(i64 8, ptr %28) #10
  call void @llvm.lifetime.end.p0(i64 8, ptr %27) #10
  ret ptr %78
}

; Function Attrs: inlinehint nounwind uwtable
define internal i32 @list_length(ptr noundef %0) #4 {
  %2 = alloca ptr, align 8
  store ptr %0, ptr %2, align 8
  %3 = load ptr, ptr %2, align 8
  %4 = icmp ne ptr %3, null
  br i1 %4, label %5, label %9

5:                                                ; preds = %1
  %6 = load ptr, ptr %2, align 8
  %7 = getelementptr inbounds nuw %struct.List, ptr %6, i32 0, i32 1
  %8 = load i32, ptr %7, align 4
  br label %10

9:                                                ; preds = %1
  br label %10

10:                                               ; preds = %9, %5
  %11 = phi i32 [ %8, %5 ], [ 0, %9 ]
  ret i32 %11
}

; Function Attrs: nounwind uwtable
define internal ptr @create_agg_plan(ptr noundef %0, ptr noundef %1) #0 {
  %3 = alloca ptr, align 8
  %4 = alloca ptr, align 8
  %5 = alloca ptr, align 8
  %6 = alloca ptr, align 8
  %7 = alloca ptr, align 8
  %8 = alloca ptr, align 8
  store ptr %0, ptr %3, align 8
  store ptr %1, ptr %4, align 8
  call void @llvm.lifetime.start.p0(i64 8, ptr %5) #10
  call void @llvm.lifetime.start.p0(i64 8, ptr %6) #10
  call void @llvm.lifetime.start.p0(i64 8, ptr %7) #10
  call void @llvm.lifetime.start.p0(i64 8, ptr %8) #10
  %9 = load ptr, ptr %3, align 8
  %10 = load ptr, ptr %4, align 8
  %11 = getelementptr inbounds nuw %struct.AggPath, ptr %10, i32 0, i32 1
  %12 = load ptr, ptr %11, align 8
  %13 = call ptr @create_plan_recurse(ptr noundef %9, ptr noundef %12, i32 noundef 4)
  store ptr %13, ptr %6, align 8
  %14 = load ptr, ptr %3, align 8
  %15 = load ptr, ptr %4, align 8
  %16 = getelementptr inbounds nuw %struct.AggPath, ptr %15, i32 0, i32 0
  %17 = call ptr @build_path_tlist(ptr noundef %14, ptr noundef %16)
  store ptr %17, ptr %7, align 8
  %18 = load ptr, ptr %3, align 8
  %19 = load ptr, ptr %4, align 8
  %20 = getelementptr inbounds nuw %struct.AggPath, ptr %19, i32 0, i32 7
  %21 = load ptr, ptr %20, align 8
  %22 = call ptr @order_qual_clauses(ptr noundef %18, ptr noundef %21)
  store ptr %22, ptr %8, align 8
  %23 = load ptr, ptr %7, align 8
  %24 = load ptr, ptr %8, align 8
  %25 = load ptr, ptr %4, align 8
  %26 = getelementptr inbounds nuw %struct.AggPath, ptr %25, i32 0, i32 2
  %27 = load i32, ptr %26, align 8
  %28 = load ptr, ptr %4, align 8
  %29 = getelementptr inbounds nuw %struct.AggPath, ptr %28, i32 0, i32 3
  %30 = load i32, ptr %29, align 4
  %31 = load ptr, ptr %4, align 8
  %32 = getelementptr inbounds nuw %struct.AggPath, ptr %31, i32 0, i32 6
  %33 = load ptr, ptr %32, align 8
  %34 = call i32 @list_length(ptr noundef %33)
  %35 = load ptr, ptr %4, align 8
  %36 = getelementptr inbounds nuw %struct.AggPath, ptr %35, i32 0, i32 6
  %37 = load ptr, ptr %36, align 8
  %38 = load ptr, ptr %6, align 8
  %39 = getelementptr inbounds nuw %struct.Plan, ptr %38, i32 0, i32 10
  %40 = load ptr, ptr %39, align 8
  %41 = call ptr @extract_grouping_cols(ptr noundef %37, ptr noundef %40)
  %42 = load ptr, ptr %4, align 8
  %43 = getelementptr inbounds nuw %struct.AggPath, ptr %42, i32 0, i32 6
  %44 = load ptr, ptr %43, align 8
  %45 = call ptr @extract_grouping_ops(ptr noundef %44)
  %46 = load ptr, ptr %4, align 8
  %47 = getelementptr inbounds nuw %struct.AggPath, ptr %46, i32 0, i32 6
  %48 = load ptr, ptr %47, align 8
  %49 = load ptr, ptr %6, align 8
  %50 = getelementptr inbounds nuw %struct.Plan, ptr %49, i32 0, i32 10
  %51 = load ptr, ptr %50, align 8
  %52 = call ptr @extract_grouping_collations(ptr noundef %48, ptr noundef %51)
  %53 = load ptr, ptr %4, align 8
  %54 = getelementptr inbounds nuw %struct.AggPath, ptr %53, i32 0, i32 4
  %55 = load double, ptr %54, align 8
  %56 = load ptr, ptr %4, align 8
  %57 = getelementptr inbounds nuw %struct.AggPath, ptr %56, i32 0, i32 5
  %58 = load i64, ptr %57, align 8
  %59 = load ptr, ptr %6, align 8
  %60 = call ptr @make_agg(ptr noundef %23, ptr noundef %24, i32 noundef %27, i32 noundef %30, i32 noundef %34, ptr noundef %41, ptr noundef %45, ptr noundef %52, ptr noundef null, ptr noundef null, double noundef %55, i64 noundef %58, ptr noundef %59)
  store ptr %60, ptr %5, align 8
  %61 = load ptr, ptr %5, align 8
  %62 = getelementptr inbounds nuw %struct.Agg, ptr %61, i32 0, i32 0
  %63 = load ptr, ptr %4, align 8
  call void @copy_generic_path_info(ptr noundef %62, ptr noundef %63)
  %64 = load ptr, ptr %5, align 8
  call void @llvm.lifetime.end.p0(i64 8, ptr %8) #10
  call void @llvm.lifetime.end.p0(i64 8, ptr %7) #10
  call void @llvm.lifetime.end.p0(i64 8, ptr %6) #10
  call void @llvm.lifetime.end.p0(i64 8, ptr %5) #10
  ret ptr %64
}