; Function Attrs: nounwind uwtable
define internal fastcc noundef ptr @create_agg_plan(ptr noundef %0, ptr noundef readonly captures(none) %1) unnamed_addr #0 {
  %3 = getelementptr inbounds nuw i8, ptr %1, i64 80
  %4 = load ptr, ptr %3, align 8
  %5 = tail call fastcc ptr @create_plan_recurse(ptr noundef %0, ptr noundef %4, i32 noundef 4)
  %6 = tail call fastcc ptr @build_path_tlist(ptr noundef %0, ptr noundef %1)
  %7 = getelementptr inbounds nuw i8, ptr %1, i64 120
  %8 = load ptr, ptr %7, align 8
  %9 = tail call fastcc ptr @order_qual_clauses(ptr noundef %0, ptr noundef %8)
  %10 = getelementptr inbounds nuw i8, ptr %1, i64 88
  %11 = load i32, ptr %10, align 8
  %12 = getelementptr inbounds nuw i8, ptr %1, i64 92
  %13 = load i32, ptr %12, align 4
  %14 = getelementptr inbounds nuw i8, ptr %1, i64 112
  %15 = load ptr, ptr %14, align 8
  %.not.i = icmp eq ptr %15, null
  br i1 %.not.i, label %list_length.exit, label %16

16:                                               ; preds = %2
  %17 = getelementptr inbounds nuw i8, ptr %15, i64 4
  %18 = load i32, ptr %17, align 4
  br label %list_length.exit

list_length.exit:                                 ; preds = %2, %16
  %19 = phi i32 [ %18, %16 ], [ 0, %2 ]
  %20 = getelementptr inbounds nuw i8, ptr %5, i64 48
  %21 = load ptr, ptr %20, align 8
  %22 = tail call ptr @extract_grouping_cols(ptr noundef %15, ptr noundef %21) #12
  %23 = load ptr, ptr %14, align 8
  %24 = tail call ptr @extract_grouping_ops(ptr noundef %23) #12
  %25 = load ptr, ptr %14, align 8
  %26 = load ptr, ptr %20, align 8
  %27 = tail call ptr @extract_grouping_collations(ptr noundef %25, ptr noundef %26) #12
  %28 = getelementptr inbounds nuw i8, ptr %1, i64 96
  %29 = load double, ptr %28, align 8
  %30 = getelementptr inbounds nuw i8, ptr %1, i64 104
  %31 = load i64, ptr %30, align 8
  %32 = tail call noundef ptr @palloc0(i64 noundef 184) #12
  store i32 364, ptr %32, align 4
  %33 = tail call i64 @clamp_cardinality_to_long(double noundef %29) #12
  %34 = getelementptr inbounds nuw i8, ptr %32, i64 104
  store i32 %11, ptr %34, align 8
  %35 = getelementptr inbounds nuw i8, ptr %32, i64 108
  store i32 %13, ptr %35, align 4
  %36 = getelementptr inbounds nuw i8, ptr %32, i64 112
  store i32 %19, ptr %36, align 8
  %37 = getelementptr inbounds nuw i8, ptr %32, i64 120
  store ptr %22, ptr %37, align 8
  %38 = getelementptr inbounds nuw i8, ptr %32, i64 128
  store ptr %24, ptr %38, align 8
  %39 = getelementptr inbounds nuw i8, ptr %32, i64 136
  store ptr %27, ptr %39, align 8
  %40 = getelementptr inbounds nuw i8, ptr %32, i64 144
  store i64 %33, ptr %40, align 8
  %41 = getelementptr inbounds nuw i8, ptr %32, i64 152
  store i64 %31, ptr %41, align 8
  %42 = getelementptr inbounds nuw i8, ptr %32, i64 160
  %43 = getelementptr inbounds nuw i8, ptr %32, i64 56
  tail call void @llvm.memset.p0.i64(ptr noundef nonnull align 8 dereferenceable(24) %42, i8 0, i64 24, i1 false)
  store ptr %9, ptr %43, align 8
  %44 = getelementptr inbounds nuw i8, ptr %32, i64 48
  store ptr %6, ptr %44, align 8
  %45 = getelementptr inbounds nuw i8, ptr %32, i64 64
  store ptr %5, ptr %45, align 8
  %46 = getelementptr inbounds nuw i8, ptr %32, i64 72
  store ptr null, ptr %46, align 8
  %47 = getelementptr inbounds nuw i8, ptr %1, i64 48
  %48 = load i32, ptr %47, align 8
  %49 = getelementptr inbounds nuw i8, ptr %32, i64 4
  store i32 %48, ptr %49, align 4
  %50 = getelementptr inbounds nuw i8, ptr %1, i64 56
  %51 = load double, ptr %50, align 8
  %52 = getelementptr inbounds nuw i8, ptr %32, i64 8
  store double %51, ptr %52, align 8
  %53 = getelementptr inbounds nuw i8, ptr %1, i64 64
  %54 = load double, ptr %53, align 8
  %55 = getelementptr inbounds nuw i8, ptr %32, i64 16
  store double %54, ptr %55, align 8
  %56 = getelementptr inbounds nuw i8, ptr %1, i64 40
  %57 = load double, ptr %56, align 8
  %58 = getelementptr inbounds nuw i8, ptr %32, i64 24
  store double %57, ptr %58, align 8
  %59 = getelementptr inbounds nuw i8, ptr %1, i64 16
  %60 = load ptr, ptr %59, align 8
  %61 = getelementptr inbounds nuw i8, ptr %60, i64 40
  %62 = load i32, ptr %61, align 8
  %63 = getelementptr inbounds nuw i8, ptr %32, i64 32
  store i32 %62, ptr %63, align 8
  %64 = getelementptr inbounds nuw i8, ptr %1, i64 32
  %65 = load i8, ptr %64, align 8, !range !4, !noundef !5
  %66 = getelementptr inbounds nuw i8, ptr %32, i64 36
  store i8 %65, ptr %66, align 4
  %67 = getelementptr inbounds nuw i8, ptr %1, i64 33
  %68 = load i8, ptr %67, align 1, !range !4, !noundef !5
  %69 = getelementptr inbounds nuw i8, ptr %32, i64 37
  store i8 %68, ptr %69, align 1
  ret ptr %32
}